target datalayout = "e-m:e-p270:32:32-p271:32:32-p272:64:64-i64:64-i128:128-f80:128-n8:16:32:64-S128"
target triple = "x86_64-pc-linux-gnu"

%class.V3GraphVertex = type { ptr, %class.V3ListLinks, %class.V3List, %class.V3List.0, double, i32, i32, %union.anon }
%class.V3ListLinks = type { ptr, ptr }
%class.V3List = type { ptr, ptr }
%class.V3List.0 = type { ptr, ptr }
%union.anon = type { ptr }
%class.V3GraphEdge = type { ptr, %class.V3ListLinks.2, %class.V3ListLinks.2, ptr, ptr, i32, i8, %union.anon.3 }
%class.V3ListLinks.2 = type { ptr, ptr }
%union.anon.3 = type { ptr }
%class.V3ErrorCode = type { i8 }

@.str.6 = private unnamed_addr constant [113 x i8] c"generated/home/dtcxzyw/WorkSpace/Projects/compilers/llvm-opt-benchmark/bench/verilator/verilator/src/V3Graph.cpp\00", align 1
@.str.7 = private unnamed_addr constant [18 x i8] c"Null from pointer\00", align 1
@.str.8 = private unnamed_addr constant [16 x i8] c"Null to pointer\00", align 1

; Function Attrs: alwaysinline mustprogress uwtable
define linkonce_odr dso_local noundef nonnull align 8 dereferenceable(16) ptr @_ZN6V3ListI11V3GraphEdgeXadL_ZNS0_6iLinksEvEES0_E7toLinksEPKS0_(ptr noundef %0) #8 comdat align 2 {
  %2 = alloca ptr, align 8
  store ptr %0, ptr %2, align 8, !tbaa !41
  %3 = load ptr, ptr %2, align 8, !tbaa !41
  %4 = getelementptr inbounds i8, ptr %3, i64 0
  br i1 false, label %5, label %9

5:                                                ; preds = %1
  %6 = load ptr, ptr %4, align 8, !tbaa !11
  %7 = getelementptr i8, ptr %6, i64 sub (i64 ptrtoint (ptr @_ZN11V3GraphEdge6iLinksEv to i64), i64 1), !nosanitize !65
  %8 = load ptr, ptr %7, align 8, !nosanitize !65
  br label %10

9:                                                ; preds = %1
  br label %10

10:                                               ; preds = %9, %5
  %11 = phi ptr [ %8, %5 ], [ @_ZN11V3GraphEdge6iLinksEv, %9 ]
  %12 = call noundef nonnull align 8 dereferenceable(16) ptr %11(ptr noundef nonnull align 8 dereferenceable(72) %4)
  ret ptr %12
}

; Function Attrs: alwaysinline mustprogress uwtable
define linkonce_odr dso_local noundef nonnull align 8 dereferenceable(16) ptr @_ZN6V3ListI11V3GraphEdgeXadL_ZNS0_6oLinksEvEES0_E7toLinksEPKS0_(ptr noundef %0) #8 comdat align 2 {
  %2 = alloca ptr, align 8
  store ptr %0, ptr %2, align 8, !tbaa !41
  %3 = load ptr, ptr %2, align 8, !tbaa !41
  %4 = getelementptr inbounds i8, ptr %3, i64 0
  br i1 false, label %5, label %9

5:                                                ; preds = %1
  %6 = load ptr, ptr %4, align 8, !tbaa !11
  %7 = getelementptr i8, ptr %6, i64 sub (i64 ptrtoint (ptr @_ZN11V3GraphEdge6oLinksEv to i64), i64 1), !nosanitize !65
  %8 = load ptr, ptr %7, align 8, !nosanitize !65
  br label %10

9:                                                ; preds = %1
  br label %10

10:                                               ; preds = %9, %5
  %11 = phi ptr [ %8, %5 ], [ @_ZN11V3GraphEdge6oLinksEv, %9 ]
  %12 = call noundef nonnull align 8 dereferenceable(16) ptr %11(ptr noundef nonnull align 8 dereferenceable(72) %4)
  ret ptr %12
}

; Function Attrs: mustprogress uwtable
define linkonce_odr dso_local void @_ZN6V3ListI11V3GraphEdgeXadL_ZNS0_6iLinksEvEES0_E8linkBackEPKS0_(ptr noundef nonnull align 8 dereferenceable(16) %0, ptr noundef %1) #4 comdat align 2 {
  %3 = alloca ptr, align 8
  %4 = alloca ptr, align 8
  %5 = alloca ptr, align 8
  store ptr %0, ptr %3, align 8, !tbaa !32
  store ptr %1, ptr %4, align 8, !tbaa !41
  %6 = load ptr, ptr %3, align 8
  call void @llvm.lifetime.start.p0(i64 8, ptr %5) #3
  %7 = load ptr, ptr %4, align 8, !tbaa !41
  %8 = call noundef nonnull align 8 dereferenceable(16) ptr @_ZN6V3ListI11V3GraphEdgeXadL_ZNS0_6iLinksEvEES0_E7toLinksEPKS0_(ptr noundef %7)
  store ptr %8, ptr %5, align 8, !tbaa !88
  %9 = load ptr, ptr %5, align 8, !tbaa !88
  %10 = getelementptr inbounds nuw %class.V3ListLinks.2, ptr %9, i32 0, i32 0
  store ptr null, ptr %10, align 8, !tbaa !90
  %11 = getelementptr inbounds nuw %class.V3List.0, ptr %6, i32 0, i32 1
  %12 = load ptr, ptr %11, align 8, !tbaa !35
  %13 = load ptr, ptr %5, align 8, !tbaa !88
  %14 = getelementptr inbounds nuw %class.V3ListLinks.2, ptr %13, i32 0, i32 1
  store ptr %12, ptr %14, align 8, !tbaa !91
  %15 = getelementptr inbounds nuw %class.V3List.0, ptr %6, i32 0, i32 1
  %16 = load ptr, ptr %15, align 8, !tbaa !35
  %17 = icmp ne ptr %16, null
  br i1 %17, label %18, label %24

18:                                               ; preds = %2
  %19 = load ptr, ptr %4, align 8, !tbaa !41
  %20 = getelementptr inbounds nuw %class.V3List.0, ptr %6, i32 0, i32 1
  %21 = load ptr, ptr %20, align 8, !tbaa !35
  %22 = call noundef nonnull align 8 dereferenceable(16) ptr @_ZN6V3ListI11V3GraphEdgeXadL_ZNS0_6iLinksEvEES0_E7toLinksEPKS0_(ptr noundef %21)
  %23 = getelementptr inbounds nuw %class.V3ListLinks.2, ptr %22, i32 0, i32 0
  store ptr %19, ptr %23, align 8, !tbaa !90
  br label %24

24:                                               ; preds = %18, %2
  %25 = load ptr, ptr %4, align 8, !tbaa !41
  %26 = getelementptr inbounds nuw %class.V3List.0, ptr %6, i32 0, i32 1
  store ptr %25, ptr %26, align 8, !tbaa !35
  %27 = getelementptr inbounds nuw %class.V3List.0, ptr %6, i32 0, i32 0
  %28 = load ptr, ptr %27, align 8, !tbaa !34
  %29 = icmp ne ptr %28, null
  br i1 %29, label %34, label %30

30:                                               ; preds = %24
  %31 = getelementptr inbounds nuw %class.V3List.0, ptr %6, i32 0, i32 1
  %32 = load ptr, ptr %31, align 8, !tbaa !35
  %33 = getelementptr inbounds nuw %class.V3List.0, ptr %6, i32 0, i32 0
  store ptr %32, ptr %33, align 8, !tbaa !34
  br label %34

34:                                               ; preds = %30, %24
  call void @llvm.lifetime.end.p0(i64 8, ptr %5) #3
  ret void
}

; Function Attrs: mustprogress nounwind uwtable
define linkonce_odr dso_local noundef nonnull align 8 dereferenceable(16) ptr @_ZN13V3GraphVertex7inEdgesEv(ptr noundef nonnull align 8 dereferenceable(80) %0) #5 comdat align 2 {
  %2 = alloca ptr, align 8
  store ptr %0, ptr %2, align 8, !tbaa !4
  %3 = load ptr, ptr %2, align 8
  %4 = getelementptr inbounds nuw %class.V3GraphVertex, ptr %3, i32 0, i32 3
  ret ptr %4
}

; Function Attrs: mustprogress uwtable
define linkonce_odr dso_local void @_ZN6V3ListI11V3GraphEdgeXadL_ZNS0_6oLinksEvEES0_E8linkBackEPKS0_(ptr noundef nonnull align 8 dereferenceable(16) %0, ptr noundef %1) #4 comdat align 2 {
  %3 = alloca ptr, align 8
  %4 = alloca ptr, align 8
  %5 = alloca ptr, align 8
  store ptr %0, ptr %3, align 8, !tbaa !28
  store ptr %1, ptr %4, align 8, !tbaa !41
  %6 = load ptr, ptr %3, align 8
  call void @llvm.lifetime.start.p0(i64 8, ptr %5) #3
  %7 = load ptr, ptr %4, align 8, !tbaa !41
  %8 = call noundef nonnull align 8 dereferenceable(16) ptr @_ZN6V3ListI11V3GraphEdgeXadL_ZNS0_6oLinksEvEES0_E7toLinksEPKS0_(ptr noundef %7)
  store ptr %8, ptr %5, align 8, !tbaa !88
  %9 = load ptr, ptr %5, align 8, !tbaa !88
  %10 = getelementptr inbounds nuw %class.V3ListLinks.2, ptr %9, i32 0, i32 0
  store ptr null, ptr %10, align 8, !tbaa !90
  %11 = getelementptr inbounds nuw %class.V3List, ptr %6, i32 0, i32 1
  %12 = load ptr, ptr %11, align 8, !tbaa !31
  %13 = load ptr, ptr %5, align 8, !tbaa !88
  %14 = getelementptr inbounds nuw %class.V3ListLinks.2, ptr %13, i32 0, i32 1
  store ptr %12, ptr %14, align 8, !tbaa !91
  %15 = getelementptr inbounds nuw %class.V3List, ptr %6, i32 0, i32 1
  %16 = load ptr, ptr %15, align 8, !tbaa !31
  %17 = icmp ne ptr %16, null
  br i1 %17, label %18, label %24

18:                                               ; preds = %2
  %19 = load ptr, ptr %4, align 8, !tbaa !41
  %20 = getelementptr inbounds nuw %class.V3List, ptr %6, i32 0, i32 1
  %21 = load ptr, ptr %20, align 8, !tbaa !31
  %22 = call noundef nonnull align 8 dereferenceable(16) ptr @_ZN6V3ListI11V3GraphEdgeXadL_ZNS0_6oLinksEvEES0_E7toLinksEPKS0_(ptr noundef %21)
  %23 = getelementptr inbounds nuw %class.V3ListLinks.2, ptr %22, i32 0, i32 0
  store ptr %19, ptr %23, align 8, !tbaa !90
  br label %24

24:                                               ; preds = %18, %2
  %25 = load ptr, ptr %4, align 8, !tbaa !41
  %26 = getelementptr inbounds nuw %class.V3List, ptr %6, i32 0, i32 1
  store ptr %25, ptr %26, align 8, !tbaa !31
  %27 = getelementptr inbounds nuw %class.V3List, ptr %6, i32 0, i32 0
  %28 = load ptr, ptr %27, align 8, !tbaa !30
  %29 = icmp ne ptr %28, null
  br i1 %29, label %34, label %30

30:                                               ; preds = %24
  %31 = getelementptr inbounds nuw %class.V3List, ptr %6, i32 0, i32 1
  %32 = load ptr, ptr %31, align 8, !tbaa !31
  %33 = getelementptr inbounds nuw %class.V3List, ptr %6, i32 0, i32 0
  store ptr %32, ptr %33, align 8, !tbaa !30
  br label %34

34:                                               ; preds = %30, %24
  call void @llvm.lifetime.end.p0(i64 8, ptr %5) #3
  ret void
}

; Function Attrs: mustprogress nounwind uwtable
define linkonce_odr dso_local noundef nonnull align 8 dereferenceable(16) ptr @_ZN13V3GraphVertex8outEdgesEv(ptr noundef nonnull align 8 dereferenceable(80) %0) #5 comdat align 2 {
  %2 = alloca ptr, align 8
  store ptr %0, ptr %2, align 8, !tbaa !4
  %3 = load ptr, ptr %2, align 8
  %4 = getelementptr inbounds nuw %class.V3GraphVertex, ptr %3, i32 0, i32 2
  ret ptr %4
}

; Function Attrs: mustprogress nounwind uwtable
define linkonce_odr dso_local void @_ZN11V3ErrorCodeC2ENS_2enE(ptr noundef nonnull align 1 dereferenceable(1) %0, i8 noundef zeroext %1) unnamed_addr #5 comdat align 2 {
  %3 = alloca ptr, align 8
  %4 = alloca i8, align 1
  store ptr %0, ptr %3, align 8, !tbaa !82
  store i8 %1, ptr %4, align 1, !tbaa !84
  %5 = load ptr, ptr %3, align 8
  %6 = getelementptr inbounds nuw %class.V3ErrorCode, ptr %5, i32 0, i32 0
  %7 = load i8, ptr %4, align 1, !tbaa !84
  store i8 %7, ptr %6, align 1, !tbaa !86
  ret void
}

; Function Attrs: mustprogress uwtable
define dso_local void @_ZN11V3GraphEdge4initEP7V3GraphP13V3GraphVertexS3_ib(ptr noundef nonnull align 8 dereferenceable(72) %0, ptr noundef %1, ptr noundef %2, ptr noundef %3, i32 noundef %4, i1 noundef zeroext %5) #4 align 2 {
  %7 = alloca ptr, align 8
  %8 = alloca ptr, align 8
  %9 = alloca ptr, align 8
  %10 = alloca ptr, align 8
  %11 = alloca i32, align 4
  %12 = alloca i8, align 1
  %13 = alloca %class.V3ErrorCode, align 1
  %14 = alloca %class.V3ErrorCode, align 1
  store ptr %0, ptr %7, align 8, !tbaa !41
  store ptr %1, ptr %8, align 8, !tbaa !9
  store ptr %2, ptr %9, align 8, !tbaa !4
  store ptr %3, ptr %10, align 8, !tbaa !4
  store i32 %4, ptr %11, align 4, !tbaa !51
  %15 = zext i1 %5 to i8
  store i8 %15, ptr %12, align 1, !tbaa !66
  %16 = load ptr, ptr %7, align 8
  br label %17

17:                                               ; preds = %6
  %18 = load ptr, ptr %9, align 8, !tbaa !4
  %19 = icmp ne ptr %18, null
  %20 = xor i1 %19, true
  %21 = xor i1 %20, true
  %22 = xor i1 %21, true
  %23 = zext i1 %22 to i64
  %24 = call i64 @llvm.expect.i64(i64 %23, i64 0)
  %25 = icmp ne i64 %24, 0
  br i1 %25, label %26, label %32

26:                                               ; preds = %17
  call void @_ZN11V3ErrorCodeC2ENS_2enE(ptr noundef nonnull align 1 dereferenceable(1) %13, i8 noundef zeroext 4)
  %27 = getelementptr inbounds nuw %class.V3ErrorCode, ptr %13, i32 0, i32 0
  %28 = load i8, ptr %27, align 1
  %29 = call noundef nonnull align 8 dereferenceable(112) ptr @_ZN7V3Error19v3errorPrepFileLineB5cxx11E11V3ErrorCodePKci(i8 %28, ptr noundef @.str.6, i32 noundef 142)
  %30 = call noundef nonnull align 8 dereferenceable(112) ptr @_ZN7V3Error10v3errorStrB5cxx11Ev()
  %31 = call noundef nonnull align 8 dereferenceable(8) ptr @_ZStlsISt11char_traitsIcEERSt13basic_ostreamIcT_ES5_PKc(ptr noundef nonnull align 8 dereferenceable(8) %30, ptr noundef @.str.7)
  call void @_Z15v3errorEndFatalRNSt7__cxx1119basic_ostringstreamIcSt11char_traitsIcESaIcEEE(ptr noundef nonnull align 8 dereferenceable(112) %31) #24
  unreachable

32:                                               ; preds = %17
  br label %33

33:                                               ; preds = %32
  br label %34

34:                                               ; preds = %33
  %35 = load ptr, ptr %10, align 8, !tbaa !4
  %36 = icmp ne ptr %35, null
  %37 = xor i1 %36, true
  %38 = xor i1 %37, true
  %39 = xor i1 %38, true
  %40 = zext i1 %39 to i64
  %41 = call i64 @llvm.expect.i64(i64 %40, i64 0)
  %42 = icmp ne i64 %41, 0
  br i1 %42, label %43, label %49

43:                                               ; preds = %34
  call void @_ZN11V3ErrorCodeC2ENS_2enE(ptr noundef nonnull align 1 dereferenceable(1) %14, i8 noundef zeroext 4)
  %44 = getelementptr inbounds nuw %class.V3ErrorCode, ptr %14, i32 0, i32 0
  %45 = load i8, ptr %44, align 1
  %46 = call noundef nonnull align 8 dereferenceable(112) ptr @_ZN7V3Error19v3errorPrepFileLineB5cxx11E11V3ErrorCodePKci(i8 %45, ptr noundef @.str.6, i32 noundef 143)
  %47 = call noundef nonnull align 8 dereferenceable(112) ptr @_ZN7V3Error10v3errorStrB5cxx11Ev()
  %48 = call noundef nonnull align 8 dereferenceable(8) ptr @_ZStlsISt11char_traitsIcEERSt13basic_ostreamIcT_ES5_PKc(ptr noundef nonnull align 8 dereferenceable(8) %47, ptr noundef @.str.8)
  call void @_Z15v3errorEndFatalRNSt7__cxx1119basic_ostringstreamIcSt11char_traitsIcESaIcEEE(ptr noundef nonnull align 8 dereferenceable(112) %48) #24
  unreachable

49:                                               ; preds = %34
  br label %50

50:                                               ; preds = %49
  %51 = load ptr, ptr %9, align 8, !tbaa !4
  %52 = getelementptr inbounds nuw %class.V3GraphEdge, ptr %16, i32 0, i32 3
  store ptr %51, ptr %52, align 8, !tbaa !46
  %53 = load ptr, ptr %10, align 8, !tbaa !4
  %54 = getelementptr inbounds nuw %class.V3GraphEdge, ptr %16, i32 0, i32 4
  store ptr %53, ptr %54, align 8, !tbaa !50
  %55 = load i32, ptr %11, align 4, !tbaa !51
  %56 = getelementptr inbounds nuw %class.V3GraphEdge, ptr %16, i32 0, i32 5
  store i32 %55, ptr %56, align 8, !tbaa !62
  %57 = load i8, ptr %12, align 1, !tbaa !66, !range !64, !noundef !65
  %58 = trunc i8 %57 to i1
  %59 = getelementptr inbounds nuw %class.V3GraphEdge, ptr %16, i32 0, i32 6
  %60 = zext i1 %58 to i8
  store i8 %60, ptr %59, align 4, !tbaa !63
  %61 = getelementptr inbounds nuw %class.V3GraphEdge, ptr %16, i32 0, i32 7
  store ptr null, ptr %61, align 8, !tbaa !23
  %62 = getelementptr inbounds nuw %class.V3GraphEdge, ptr %16, i32 0, i32 3
  %63 = load ptr, ptr %62, align 8, !tbaa !46
  %64 = call noundef nonnull align 8 dereferenceable(16) ptr @_ZN13V3GraphVertex8outEdgesEv(ptr noundef nonnull align 8 dereferenceable(80) %63)
  call void @_ZN6V3ListI11V3GraphEdgeXadL_ZNS0_6oLinksEvEES0_E8linkBackEPKS0_(ptr noundef nonnull align 8 dereferenceable(16) %64, ptr noundef %16)
  %65 = getelementptr inbounds nuw %class.V3GraphEdge, ptr %16, i32 0, i32 4
  %66 = load ptr, ptr %65, align 8, !tbaa !50
  %67 = call noundef nonnull align 8 dereferenceable(16) ptr @_ZN13V3GraphVertex7inEdgesEv(ptr noundef nonnull align 8 dereferenceable(80) %66)
  call void @_ZN6V3ListI11V3GraphEdgeXadL_ZNS0_6iLinksEvEES0_E8linkBackEPKS0_(ptr noundef nonnull align 8 dereferenceable(16) %67, ptr noundef %16)
  ret void
}