; Function Attrs: mustprogress uwtable
define dso_local void @_ZN11V3GraphEdge4initEP7V3GraphP13V3GraphVertexS3_ib(ptr noundef nonnull align 8 dereferenceable(72) %0, ptr readnone captures(none) %1, ptr noundef %2, ptr noundef %3, i32 noundef %4, i1 noundef zeroext %5) #4 align 2 {
  %.not = icmp eq ptr %2, null
  br i1 %.not, label %7, label %11, !prof !44

7:                                                ; preds = %6
  %8 = tail call noundef nonnull align 8 dereferenceable(112) ptr @_ZN7V3Error19v3errorPrepFileLineB5cxx11E11V3ErrorCodePKci(i8 4, ptr noundef nonnull @.str.6, i32 noundef 142)
  %9 = tail call noundef nonnull align 8 dereferenceable(112) ptr @_ZN7V3Error10v3errorStrB5cxx11Ev()
  %10 = tail call noundef nonnull align 8 dereferenceable(8) ptr @_ZStlsISt11char_traitsIcEERSt13basic_ostreamIcT_ES5_PKc(ptr noundef nonnull align 8 dereferenceable(8) %9, ptr noundef nonnull @.str.7)
  tail call void @_Z15v3errorEndFatalRNSt7__cxx1119basic_ostringstreamIcSt11char_traitsIcESaIcEEE(ptr noundef nonnull align 8 dereferenceable(112) %10) #29
  unreachable

11:                                               ; preds = %6
  %.not6 = icmp eq ptr %3, null
  br i1 %.not6, label %12, label %16, !prof !44

12:                                               ; preds = %11
  %13 = tail call noundef nonnull align 8 dereferenceable(112) ptr @_ZN7V3Error19v3errorPrepFileLineB5cxx11E11V3ErrorCodePKci(i8 4, ptr noundef nonnull @.str.6, i32 noundef 143)
  %14 = tail call noundef nonnull align 8 dereferenceable(112) ptr @_ZN7V3Error10v3errorStrB5cxx11Ev()
  %15 = tail call noundef nonnull align 8 dereferenceable(8) ptr @_ZStlsISt11char_traitsIcEERSt13basic_ostreamIcT_ES5_PKc(ptr noundef nonnull align 8 dereferenceable(8) %14, ptr noundef nonnull @.str.8)
  tail call void @_Z15v3errorEndFatalRNSt7__cxx1119basic_ostringstreamIcSt11char_traitsIcESaIcEEE(ptr noundef nonnull align 8 dereferenceable(112) %15) #29
  unreachable

16:                                               ; preds = %11
  %17 = zext i1 %5 to i8
  %18 = getelementptr inbounds nuw i8, ptr %0, i64 40
  store ptr %2, ptr %18, align 8, !tbaa !27
  %19 = getelementptr inbounds nuw i8, ptr %0, i64 48
  store ptr %3, ptr %19, align 8, !tbaa !34
  %20 = getelementptr inbounds nuw i8, ptr %0, i64 56
  store i32 %4, ptr %20, align 8, !tbaa !40
  %21 = getelementptr inbounds nuw i8, ptr %0, i64 60
  store i8 %17, ptr %21, align 4, !tbaa !41
  %22 = getelementptr inbounds nuw i8, ptr %0, i64 64
  store ptr null, ptr %22, align 8, !tbaa !20
  %23 = getelementptr inbounds nuw i8, ptr %2, i64 24
  %24 = getelementptr inbounds nuw i8, ptr %0, i64 8
  store ptr null, ptr %24, align 8, !tbaa !31
  %25 = getelementptr inbounds nuw i8, ptr %2, i64 32
  %26 = load ptr, ptr %25, align 8, !tbaa !33
  %27 = getelementptr inbounds nuw i8, ptr %0, i64 16
  store ptr %26, ptr %27, align 8, !tbaa !32
  %.not.i = icmp eq ptr %26, null
  br i1 %.not.i, label %30, label %28

28:                                               ; preds = %16
  %29 = getelementptr inbounds nuw i8, ptr %26, i64 8
  store ptr %0, ptr %29, align 8, !tbaa !31
  br label %30

30:                                               ; preds = %28, %16
  store ptr %0, ptr %25, align 8, !tbaa !33
  %31 = load ptr, ptr %23, align 8, !tbaa !26
  %.not6.i = icmp eq ptr %31, null
  br i1 %.not6.i, label %32, label %_ZN6V3ListI11V3GraphEdgeXadL_ZNS0_6oLinksEvEES0_E8linkBackEPKS0_.exit

32:                                               ; preds = %30
  store ptr %0, ptr %23, align 8, !tbaa !26
  br label %_ZN6V3ListI11V3GraphEdgeXadL_ZNS0_6oLinksEvEES0_E8linkBackEPKS0_.exit

_ZN6V3ListI11V3GraphEdgeXadL_ZNS0_6oLinksEvEES0_E8linkBackEPKS0_.exit: ; preds = %30, %32
  %33 = getelementptr inbounds nuw i8, ptr %3, i64 40
  %34 = getelementptr inbounds nuw i8, ptr %0, i64 24
  store ptr null, ptr %34, align 8, !tbaa !31
  %35 = getelementptr inbounds nuw i8, ptr %3, i64 48
  %36 = load ptr, ptr %35, align 8, !tbaa !36
  %37 = getelementptr inbounds nuw i8, ptr %0, i64 32
  store ptr %36, ptr %37, align 8, !tbaa !32
  %.not.i7 = icmp eq ptr %36, null
  br i1 %.not.i7, label %40, label %38

38:                                               ; preds = %_ZN6V3ListI11V3GraphEdgeXadL_ZNS0_6oLinksEvEES0_E8linkBackEPKS0_.exit
  %39 = getelementptr inbounds nuw i8, ptr %36, i64 24
  store ptr %0, ptr %39, align 8, !tbaa !31
  br label %40

40:                                               ; preds = %38, %_ZN6V3ListI11V3GraphEdgeXadL_ZNS0_6oLinksEvEES0_E8linkBackEPKS0_.exit
  store ptr %0, ptr %35, align 8, !tbaa !36
  %41 = load ptr, ptr %33, align 8, !tbaa !35
  %.not6.i8 = icmp eq ptr %41, null
  br i1 %.not6.i8, label %42, label %_ZN6V3ListI11V3GraphEdgeXadL_ZNS0_6iLinksEvEES0_E8linkBackEPKS0_.exit

42:                                               ; preds = %40
  store ptr %0, ptr %33, align 8, !tbaa !35
  br label %_ZN6V3ListI11V3GraphEdgeXadL_ZNS0_6iLinksEvEES0_E8linkBackEPKS0_.exit

_ZN6V3ListI11V3GraphEdgeXadL_ZNS0_6iLinksEvEES0_E8linkBackEPKS0_.exit: ; preds = %40, %42
  ret void
}